target datalayout = "e-m:e-p270:32:32-p271:32:32-p272:64:64-i64:64-i128:128-f80:128-n8:16:32:64-S128"
target triple = "x86_64-pc-linux-gnu"

; Function Attrs: inlinehint nounwind sspstrong willreturn memory(none) uwtable
define internal zeroext i1 @RB_UNDEF_P(i64 noundef %0) #4 {
  %2 = alloca i64, align 8
  store i64 %0, ptr %2, align 8, !tbaa !7
  %3 = load i64, ptr %2, align 8, !tbaa !7
  %4 = icmp eq i64 %3, 36
  ret i1 %4
}

; Function Attrs: nounwind sspstrong uwtable
define internal zeroext i1 @wmap_live_p(i64 noundef %0) #0 {
  %2 = alloca i64, align 8
  store i64 %0, ptr %2, align 8, !tbaa !7
  %3 = load i64, ptr %2, align 8, !tbaa !7
  %4 = call zeroext i1 @RB_UNDEF_P(i64 noundef %3) #16
  %5 = xor i1 %4, true
  ret i1 %5
}

; Function Attrs: inlinehint nounwind sspstrong uwtable
define internal void @ruby_sized_xfree_inlined(ptr noundef %0, i64 noundef %1) #3 {
  %3 = alloca ptr, align 8
  %4 = alloca i64, align 8
  store ptr %0, ptr %3, align 8, !tbaa !33
  store i64 %1, ptr %4, align 8, !tbaa !7
  %5 = load ptr, ptr %3, align 8, !tbaa !33
  call void @ruby_xfree(ptr noundef %5)
  ret void
}

; Function Attrs: nounwind sspstrong uwtable
define internal i32 @wkmap_mark_table_i(i64 noundef %0, i64 noundef %1, i64 noundef %2) #0 {
  %4 = alloca i32, align 4
  %5 = alloca i64, align 8
  %6 = alloca i64, align 8
  %7 = alloca i64, align 8
  %8 = alloca ptr, align 8
  %9 = alloca ptr, align 8
  %10 = alloca i32, align 4
  store i64 %0, ptr %5, align 8, !tbaa !7
  store i64 %1, ptr %6, align 8, !tbaa !7
  store i64 %2, ptr %7, align 8, !tbaa !7
  call void @llvm.lifetime.start.p0(i64 8, ptr %8) #15
  %11 = load i64, ptr %7, align 8, !tbaa !7
  %12 = inttoptr i64 %11 to ptr
  store ptr %12, ptr %8, align 8, !tbaa !60
  %13 = load ptr, ptr %8, align 8, !tbaa !60
  %14 = load ptr, ptr %13, align 8, !tbaa !48
  call void @ruby_sized_xfree_inlined(ptr noundef %14, i64 noundef 8)
  %15 = load ptr, ptr %8, align 8, !tbaa !60
  store ptr null, ptr %15, align 8, !tbaa !48
  call void @llvm.lifetime.start.p0(i64 8, ptr %9) #15
  %16 = load i64, ptr %5, align 8, !tbaa !7
  %17 = inttoptr i64 %16 to ptr
  store ptr %17, ptr %9, align 8, !tbaa !48
  %18 = load ptr, ptr %9, align 8, !tbaa !48
  %19 = load i64, ptr %18, align 8, !tbaa !7
  %20 = call zeroext i1 @wmap_live_p(i64 noundef %19)
  br i1 %20, label %21, label %24

21:                                               ; preds = %3
  %22 = load ptr, ptr %9, align 8, !tbaa !48
  call void @rb_gc_mark_weak(ptr noundef %22)
  %23 = load i64, ptr %6, align 8, !tbaa !7
  call void @rb_gc_mark_movable(i64 noundef %23)
  store i32 0, ptr %4, align 4
  store i32 1, ptr %10, align 4
  br label %27

24:                                               ; preds = %3
  %25 = load ptr, ptr %9, align 8, !tbaa !48
  %26 = load ptr, ptr %8, align 8, !tbaa !60
  store ptr %25, ptr %26, align 8, !tbaa !48
  store i32 2, ptr %4, align 4
  store i32 1, ptr %10, align 4
  br label %27

27:                                               ; preds = %24, %21
  call void @llvm.lifetime.end.p0(i64 8, ptr %9) #15
  call void @llvm.lifetime.end.p0(i64 8, ptr %8) #15
  %28 = load i32, ptr %4, align 4
  ret i32 %28
}