; Function Attrs: nounwind sspstrong uwtable
define internal range(i32 0, 3) i32 @wkmap_mark_table_i(i64 noundef %0, i64 noundef %1, i64 noundef %2) #0 {
  %4 = inttoptr i64 %2 to ptr
  %5 = load ptr, ptr %4, align 8, !tbaa !41
  tail call void @ruby_xfree(ptr noundef %5) #10
  store ptr null, ptr %4, align 8, !tbaa !41
  %6 = inttoptr i64 %0 to ptr
  %7 = load i64, ptr %6, align 8, !tbaa !7
  %.not = icmp eq i64 %7, 36
  br i1 %.not, label %9, label %8

8:                                                ; preds = %3
  tail call void @rb_gc_mark_weak(ptr noundef nonnull %6) #10
  tail call void @rb_gc_mark_movable(i64 noundef %1) #10
  br label %10

9:                                                ; preds = %3
  store ptr %6, ptr %4, align 8, !tbaa !41
  br label %10

10:                                               ; preds = %9, %8
  %.0 = phi i32 [ 0, %8 ], [ 2, %9 ]
  ret i32 %.0
}